target datalayout = "e-m:e-p270:32:32-p271:32:32-p272:64:64-i64:64-i128:128-f80:128-n8:16:32:64-S128"
target triple = "x86_64-unknown-linux-gnu"

; Function Attrs: mustprogress nounwind uwtable
define linkonce_odr hidden noundef i64 @_ZN4llvh6detail19LeadingZerosCounterIjLm4EE5countEjNS_12ZeroBehaviorE(i32 noundef %Val, i32 noundef %ZB) #0 comdat align 2 {
entry:
  %retval = alloca i64, align 8
  %Val.addr = alloca i32, align 4
  %ZB.addr = alloca i32, align 4
  store i32 %Val, ptr %Val.addr, align 4
  store i32 %ZB, ptr %ZB.addr, align 4
  %0 = load i32, ptr %ZB.addr, align 4
  %cmp = icmp ne i32 %0, 0
  br i1 %cmp, label %land.lhs.true, label %if.end

land.lhs.true:                                    ; preds = %entry
  %1 = load i32, ptr %Val.addr, align 4
  %cmp1 = icmp eq i32 %1, 0
  br i1 %cmp1, label %if.then, label %if.end

if.then:                                          ; preds = %land.lhs.true
  store i64 32, ptr %retval, align 8
  br label %return

if.end:                                           ; preds = %land.lhs.true, %entry
  %2 = load i32, ptr %Val.addr, align 4
  %3 = call i32 @llvm.ctlz.i32(i32 %2, i1 true)
  %conv = sext i32 %3 to i64
  store i64 %conv, ptr %retval, align 8
  br label %return

return:                                           ; preds = %if.end, %if.then
  %4 = load i64, ptr %retval, align 8
  ret i64 %4
}

; Function Attrs: mustprogress nounwind uwtable
define linkonce_odr hidden noundef i64 @_ZN4llvh17countLeadingZerosIjEEmT_NS_12ZeroBehaviorE(i32 noundef %Val, i32 noundef %ZB) #0 comdat {
entry:
  %Val.addr = alloca i32, align 4
  %ZB.addr = alloca i32, align 4
  store i32 %Val, ptr %Val.addr, align 4
  store i32 %ZB, ptr %ZB.addr, align 4
  %0 = load i32, ptr %Val.addr, align 4
  %1 = load i32, ptr %ZB.addr, align 4
  %call = call noundef i64 @_ZN4llvh6detail19LeadingZerosCounterIjLm4EE5countEjNS_12ZeroBehaviorE(i32 noundef %0, i32 noundef %1)
  ret i64 %call
}

; Function Attrs: mustprogress nounwind uwtable
define linkonce_odr hidden noundef i32 @_ZN4llvh7Log2_32Ej(i32 noundef %Value) #0 comdat {
entry:
  %Value.addr = alloca i32, align 4
  store i32 %Value, ptr %Value.addr, align 4
  %0 = load i32, ptr %Value.addr, align 4
  %call = call noundef i64 @_ZN4llvh17countLeadingZerosIjEEmT_NS_12ZeroBehaviorE(i32 noundef %0, i32 noundef 2)
  %sub = sub i64 31, %call
  %conv = trunc i64 %sub to i32
  ret i32 %conv
}

; Function Attrs: mustprogress nounwind uwtable
define hidden noundef i32 @_ZN6hermes2vm7HadesGC6OldGen17getFreelistBucketEj(i32 noundef %size) #0 align 2 {
entry:
  %retval = alloca i32, align 4
  %size.addr = alloca i32, align 4
  %bucket = alloca i32, align 4
  %bucket1 = alloca i64, align 8
  store i32 %size, ptr %size.addr, align 4
  %0 = load i32, ptr %size.addr, align 4
  %conv = zext i32 %0 to i64
  %cmp = icmp ult i64 %conv, 2048
  br i1 %cmp, label %if.then, label %if.end

if.then:                                          ; preds = %entry
  %1 = load i32, ptr %size.addr, align 4
  %shr = lshr i32 %1, 3
  store i32 %shr, ptr %bucket, align 4
  %2 = load i32, ptr %bucket, align 4
  store i32 %2, ptr %retval, align 4
  br label %return

if.end:                                           ; preds = %entry
  %3 = load i32, ptr %size.addr, align 4
  %call = call noundef i32 @_ZN4llvh7Log2_32Ej(i32 noundef %3)
  %conv2 = zext i32 %call to i64
  %add = add i64 256, %conv2
  %sub = sub i64 %add, 11
  store i64 %sub, ptr %bucket1, align 8
  %4 = load i64, ptr %bucket1, align 8
  %conv3 = trunc i64 %4 to i32
  store i32 %conv3, ptr %retval, align 4
  br label %return

return:                                           ; preds = %if.end, %if.then
  %5 = load i32, ptr %retval, align 4
  ret i32 %5
}