; Function Attrs: mustprogress nofree norecurse nosync nounwind willreturn memory(none) uwtable
define hidden noundef i32 @_ZN6hermes2vm7HadesGC6OldGen17getFreelistBucketEj(i32 noundef %size) local_unnamed_addr #6 align 2 {
entry:
  %cmp = icmp ult i32 %size, 2048
  %shr = lshr i32 %size, 3
  %0 = tail call i32 @llvm.ctlz.i32(i32 %size, i1 true), !range !4
  %sub = sub nuw nsw i32 276, %0
  %retval.0 = select i1 %cmp, i32 %shr, i32 %sub
  ret i32 %retval.0
}